Certificate:
    Data:
        Version: 3 (0x2)
        Serial Number:
            a9:8f:9d:44:7a:18:ee:41:d9:92:69:3f:d9:6d:71:8e
    Signature Algorithm: sha256WithRSAEncryption
        Issuer: CN=itz-vpc-wdc-airgap
        Validity
            Not Before: Dec 16 18:46:56 2021 GMT
            Not After : Mar 20 18:46:56 2024 GMT
        Subject: CN=client1-us-east.vpn.ibm.com
        Subject Public Key Info:
            Public Key Algorithm: rsaEncryption
                Public-Key: (2048 bit)
                Modulus:
                    00:ee:35:ee:7e:6a:3f:89:a3:c9:ce:8e:7f:23:d3:
                    38:f8:71:a9:89:d9:f4:cd:78:29:1d:95:3d:2f:97:
                    b6:45:c4:4d:97:1c:4f:30:fb:62:39:7c:8b:4c:83:
                    9d:7c:2d:d8:f1:82:d7:9e:fa:93:50:c4:eb:ca:21:
                    87:68:5d:e5:19:85:d2:55:f1:74:44:4d:48:af:d7:
                    3a:b2:4e:c6:7b:71:0b:44:16:01:7c:f7:aa:25:c7:
                    62:b4:cf:d0:d1:d7:cb:b7:40:36:5c:03:9a:15:07:
                    de:1f:9d:62:15:dc:fb:f4:07:70:e6:be:a9:b3:33:
                    fd:d9:d9:99:b2:a0:04:64:f2:13:ab:77:28:11:ed:
                    ce:89:14:b2:36:f7:c5:d4:b7:6b:91:3a:d2:be:7f:
                    d9:47:44:c1:89:21:71:56:fb:a1:19:1c:fb:55:de:
                    3b:72:11:52:51:9b:0d:c6:57:09:c3:1e:c6:99:2f:
                    d9:06:43:ec:87:d1:0a:17:0e:a9:96:90:b0:c3:db:
                    21:60:20:48:7f:64:58:bc:76:f7:b4:5c:55:8a:94:
                    cd:01:33:e7:1e:7d:c8:85:d6:f5:14:e0:f2:f4:84:
                    53:47:0c:f6:b8:0e:b0:ac:07:6c:20:f8:2d:fa:cf:
                    8b:56:cd:68:bb:bc:48:28:c9:fb:38:1f:55:a0:ed:
                    e8:a1
                Exponent: 65537 (0x10001)
        X509v3 extensions:
            X509v3 Basic Constraints: 
                CA:FALSE
            X509v3 Subject Key Identifier: 
                7F:2C:39:C8:9D:53:6D:2F:5C:87:02:A0:F7:BA:D3:A7:CF:19:02:EA
            X509v3 Authority Key Identifier: 
                keyid:5B:FA:CD:B6:9D:9C:D7:86:61:2E:98:2F:76:3A:16:86:D2:72:0F:9C
                DirName:/CN=itz-vpc-wdc-airgap
                serial:CA:E1:88:6F:FF:4F:D4:ED

            X509v3 Extended Key Usage: 
                TLS Web Client Authentication
            X509v3 Key Usage: 
                Digital Signature
    Signature Algorithm: sha256WithRSAEncryption
         1c:5e:ab:e1:30:4b:61:7a:d2:5a:53:ca:1f:6a:bc:fd:0c:3a:
         5a:95:bd:ec:cd:12:4e:24:fc:c4:05:49:1c:f2:74:c7:34:58:
         c0:fc:00:7a:bc:b5:68:e2:8c:29:d1:1b:3b:52:ed:7b:95:da:
         23:35:f0:96:47:32:5e:33:b9:a8:47:1f:ca:38:d5:c3:a7:f8:
         27:aa:b4:a6:2a:8d:d3:cf:d5:02:66:8f:ce:2a:fd:01:f7:6e:
         70:c5:31:e6:92:d5:50:7c:4e:3c:4e:48:6b:50:41:53:f3:03:
         01:91:43:fb:2c:ed:1a:9f:6b:de:e8:cc:bd:71:c3:38:09:1d:
         f2:dc:9f:78:f5:29:ea:ab:07:5f:53:1c:c6:ed:8a:56:39:b2:
         a0:f8:45:63:4e:e8:f2:79:61:91:dc:b7:f6:72:72:39:8e:5b:
         c9:e0:63:e7:f6:28:ba:db:41:53:ab:b1:40:45:dd:36:97:60:
         28:a9:56:23:1e:b9:21:db:ba:ed:72:aa:4d:c5:36:61:a0:ab:
         3e:3e:c1:d3:2d:cf:8b:48:db:ea:41:08:cd:ef:36:77:a7:e3:
         83:52:a9:64:13:e5:73:db:9d:29:23:f4:73:f3:1a:7f:4c:d9:
         a2:b5:fa:07:c1:70:a0:12:80:db:76:f3:94:f4:30:d4:24:a9:
         bb:1e:ef:b8
-----BEGIN CERTIFICATE-----
MIIDbTCCAlWgAwIBAgIRAKmPnUR6GO5B2ZJpP9ltcY4wDQYJKoZIhvcNAQELBQAw
HTEbMBkGA1UEAwwSaXR6LXZwYy13ZGMtYWlyZ2FwMB4XDTIxMTIxNjE4NDY1NloX
DTI0MDMyMDE4NDY1NlowJjEkMCIGA1UEAwwbY2xpZW50MS11cy1lYXN0LnZwbi5p
Ym0uY29tMIIBIjANBgkqhkiG9w0BAQEFAAOCAQ8AMIIBCgKCAQEA7jXufmo/iaPJ
zo5/I9M4+HGpidn0zXgpHZU9L5e2RcRNlxxPMPtiOXyLTIOdfC3Y8YLXnvqTUMTr
yiGHaF3lGYXSVfF0RE1Ir9c6sk7Ge3ELRBYBfPeqJcditM/Q0dfLt0A2XAOaFQfe
H51iFdz79Adw5r6pszP92dmZsqAEZPITq3coEe3OiRSyNvfF1LdrkTrSvn/ZR0TB
iSFxVvuhGRz7Vd47chFSUZsNxlcJwx7GmS/ZBkPsh9EKFw6plpCww9shYCBIf2RY
vHb3tFxVipTNATPnHn3Ihdb1FODy9IRTRwz2uA6wrAdsIPgt+s+LVs1ou7xIKMn7
OB9VoO3ooQIDAQABo4GeMIGbMAkGA1UdEwQCMAAwHQYDVR0OBBYEFH8sOcidU20v
XIcCoPe606fPGQLqME0GA1UdIwRGMESAFFv6zbadnNeGYS6YL3Y6FobScg+coSGk
HzAdMRswGQYDVQQDDBJpdHotdnBjLXdkYy1haXJnYXCCCQDK4Yhv/0/U7TATBgNV
HSUEDDAKBggrBgEFBQcDAjALBgNVHQ8EBAMCB4AwDQYJKoZIhvcNAQELBQADggEB
ABxeq+EwS2F60lpTyh9qvP0MOlqVvezNEk4k/MQFSRzydMc0WMD8AHq8tWjijCnR
GztS7XuV2iM18JZHMl4zuahHH8o41cOn+CeqtKYqjdPP1QJmj84q/QH3bnDFMeaS
1VB8TjxOSGtQQVPzAwGRQ/ss7Rqfa97ozL1xwzgJHfLcn3j1KeqrB19THMbtilY5
sqD4RWNO6PJ5YZHct/ZycjmOW8ngY+f2KLrbQVOrsUBF3TaXYCipViMeuSHbuu1y
qk3FNmGgqz4+wdMtz4tI2+pBCM3vNnen44NSqWQT5XPbnSkj9HPzGn9M2aK1+gfB
cKASgNt285T0MNQkqbse77g=
-----END CERTIFICATE-----
