Certificate:
    Data:
        Version: 3 (0x2)
        Serial Number:
            0f:6c:dc:e9:90:66:e8:99:68:50:3e:af:37:80:1b:a2
    Signature Algorithm: sha256WithRSAEncryption
        Issuer: CN=itz-vpc-dal-airgap
        Validity
            Not Before: Dec 16 18:42:58 2021 GMT
            Not After : Mar 20 18:42:58 2024 GMT
        Subject: CN=client1-us-south.vpn.ibm.com
        Subject Public Key Info:
            Public Key Algorithm: rsaEncryption
                Public-Key: (2048 bit)
                Modulus:
                    00:a5:fa:76:98:8a:6b:86:77:5f:90:7b:e1:c3:b5:
                    1b:29:04:62:fc:9b:e1:55:46:38:f4:0a:ca:d5:28:
                    17:97:08:12:08:3c:e6:9d:6f:6f:21:7c:81:50:24:
                    9e:b3:bf:66:3f:6e:6b:9b:f0:ee:49:99:6a:f4:75:
                    04:0d:f4:51:df:e2:8d:22:3a:7e:3c:76:ab:f3:f4:
                    d0:20:df:20:37:09:19:00:82:c5:99:91:e7:90:85:
                    26:f6:34:28:0f:a4:38:97:eb:f7:b8:aa:e6:73:2e:
                    2a:6b:c4:0b:ca:42:55:b5:28:1a:5e:24:4e:0a:9f:
                    6b:a6:88:6a:86:dc:3d:53:b5:ea:35:f2:9a:b3:e9:
                    c0:63:fe:33:a5:f8:1e:f6:d3:7e:11:8c:8d:8f:fd:
                    67:f6:e5:93:4c:e2:7c:a6:73:a8:3b:83:c7:d9:0b:
                    ad:ca:f6:4f:99:0f:13:5e:33:a7:49:9f:da:c3:d3:
                    9c:78:78:0a:10:5d:08:94:ad:06:c4:3f:ae:60:bf:
                    ae:87:c3:0f:2e:31:4a:9e:42:07:59:5f:c8:20:3d:
                    12:ea:1d:5c:d1:95:08:62:3d:c7:16:24:cd:c4:19:
                    e5:04:80:1c:c6:dd:08:19:d8:4e:48:b7:61:27:34:
                    3c:7f:9e:32:7f:6b:47:0f:2e:81:9a:3b:7a:78:96:
                    1a:33
                Exponent: 65537 (0x10001)
        X509v3 extensions:
            X509v3 Basic Constraints: 
                CA:FALSE
            X509v3 Subject Key Identifier: 
                C4:4B:B9:5E:46:E0:A4:FB:48:70:A3:52:82:97:20:D5:DE:B1:9B:B2
            X509v3 Authority Key Identifier: 
                keyid:C8:28:D6:49:67:79:FD:1F:E5:0A:CF:09:03:6F:A5:61:FC:80:00:90
                DirName:/CN=itz-vpc-dal-airgap
                serial:CE:A8:EC:24:78:88:C7:07

            X509v3 Extended Key Usage: 
                TLS Web Client Authentication
            X509v3 Key Usage: 
                Digital Signature
    Signature Algorithm: sha256WithRSAEncryption
         99:4e:ea:61:4e:34:35:2f:ef:5f:42:1c:c2:a5:8b:99:56:8a:
         34:ba:34:ae:1d:da:66:66:a3:01:43:8e:2f:10:1c:91:d7:35:
         47:bd:22:7b:75:50:16:18:b2:16:30:1c:a6:21:0c:20:db:f5:
         da:83:e5:88:47:28:b3:3d:d7:e6:f6:3f:b6:ed:f5:08:d1:a4:
         a6:ff:67:db:4a:35:8f:f9:80:30:90:35:5d:3f:2c:05:85:2a:
         56:91:07:28:2d:8f:b6:0e:e9:08:53:8a:1d:59:99:6a:5e:28:
         a5:38:60:51:9b:08:c4:74:7f:ba:7f:72:b2:b1:2f:9b:5f:5d:
         5b:a0:2a:2c:16:a9:1e:1d:e6:aa:94:6b:db:9c:27:27:67:4e:
         2f:94:3d:90:a9:ca:3b:4f:a4:f2:25:6e:b7:23:dd:98:2b:cd:
         15:55:69:f9:38:ec:90:15:40:38:a7:d4:72:00:bf:21:f8:e5:
         e9:57:0a:32:db:bf:2f:a5:c1:b0:87:c6:22:e6:91:50:77:17:
         51:97:92:51:b8:82:bb:76:98:f4:5b:e5:24:c3:84:4a:bd:6e:
         75:16:0d:f0:e8:0b:91:c0:c2:50:7e:fd:8d:e9:39:bc:6d:09:
         9a:58:29:55:3a:3b:68:62:f5:92:9c:78:92:31:88:34:99:ba:
         fc:d9:57:60
-----BEGIN CERTIFICATE-----
MIIDbTCCAlWgAwIBAgIQD2zc6ZBm6JloUD6vN4AbojANBgkqhkiG9w0BAQsFADAd
MRswGQYDVQQDDBJpdHotdnBjLWRhbC1haXJnYXAwHhcNMjExMjE2MTg0MjU4WhcN
MjQwMzIwMTg0MjU4WjAnMSUwIwYDVQQDDBxjbGllbnQxLXVzLXNvdXRoLnZwbi5p
Ym0uY29tMIIBIjANBgkqhkiG9w0BAQEFAAOCAQ8AMIIBCgKCAQEApfp2mIprhndf
kHvhw7UbKQRi/JvhVUY49ArK1SgXlwgSCDzmnW9vIXyBUCSes79mP25rm/DuSZlq
9HUEDfRR3+KNIjp+PHar8/TQIN8gNwkZAILFmZHnkIUm9jQoD6Q4l+v3uKrmcy4q
a8QLykJVtSgaXiROCp9rpohqhtw9U7XqNfKas+nAY/4zpfge9tN+EYyNj/1n9uWT
TOJ8pnOoO4PH2QutyvZPmQ8TXjOnSZ/aw9OceHgKEF0IlK0GxD+uYL+uh8MPLjFK
nkIHWV/IID0S6h1c0ZUIYj3HFiTNxBnlBIAcxt0IGdhOSLdhJzQ8f54yf2tHDy6B
mjt6eJYaMwIDAQABo4GeMIGbMAkGA1UdEwQCMAAwHQYDVR0OBBYEFMRLuV5G4KT7
SHCjUoKXINXesZuyME0GA1UdIwRGMESAFMgo1klnef0f5QrPCQNvpWH8gACQoSGk
HzAdMRswGQYDVQQDDBJpdHotdnBjLWRhbC1haXJnYXCCCQDOqOwkeIjHBzATBgNV
HSUEDDAKBggrBgEFBQcDAjALBgNVHQ8EBAMCB4AwDQYJKoZIhvcNAQELBQADggEB
AJlO6mFONDUv719CHMKli5lWijS6NK4d2mZmowFDji8QHJHXNUe9Int1UBYYshYw
HKYhDCDb9dqD5YhHKLM91+b2P7bt9QjRpKb/Z9tKNY/5gDCQNV0/LAWFKlaRBygt
j7YO6QhTih1ZmWpeKKU4YFGbCMR0f7p/crKxL5tfXVugKiwWqR4d5qqUa9ucJydn
Ti+UPZCpyjtPpPIlbrcj3ZgrzRVVafk47JAVQDin1HIAvyH45elXCjLbvy+lwbCH
xiLmkVB3F1GXklG4grt2mPRb5STDhEq9bnUWDfDoC5HAwlB+/Y3pObxtCZpYKVU6
O2hi9ZKceJIxiDSZuvzZV2A=
-----END CERTIFICATE-----
